; Function Attrs: mustprogress uwtable
define void @_ZN5arrow15DenseUnionArrayC2ERKSt10shared_ptrINS_9ArrayDataEE(ptr noundef nonnull align 8 dereferenceable(80) %this, ptr nocapture noundef nonnull readonly align 8 dereferenceable(16) %data) unnamed_addr #0 align 2 personality ptr @__gxx_personality_v0 {
entry:
  %data_.i.i = getelementptr inbounds i8, ptr %this, i64 8
  tail call void @llvm.memset.p0.i64(ptr noundef nonnull align 8 dereferenceable(24) %data_.i.i, i8 0, i64 24, i1 false)
  %boxed_fields_.i = getelementptr inbounds i8, ptr %this, i64 48
  tail call void @llvm.memset.p0.i64(ptr noundef nonnull align 8 dereferenceable(24) %boxed_fields_.i, i8 0, i64 24, i1 false)
  store ptr getelementptr inbounds ({ [4 x ptr] }, ptr @_ZTVN5arrow15DenseUnionArrayE, i64 0, i32 0, i64 2), ptr %this, align 8
  invoke void @_ZN5arrow15DenseUnionArray7SetDataERKSt10shared_ptrINS_9ArrayDataEE(ptr noundef nonnull align 8 dereferenceable(80) %this, ptr noundef nonnull align 8 dereferenceable(16) %data)
          to label %invoke.cont unwind label %lpad

invoke.cont:                                      ; preds = %entry
  ret void

lpad:                                             ; preds = %entry
  %0 = landingpad { ptr, i32 }
          cleanup
  tail call void @_ZN5arrow10UnionArrayD2Ev(ptr noundef nonnull align 8 dereferenceable(72) %this) #18
  resume { ptr, i32 } %0
}